; Function Attrs: uwtable
define hidden noundef zeroext i1 @_ZThn48_N3fpa6solver7visitedEP4expr(ptr noundef %this, ptr noundef %e) unnamed_addr #9 align 2 {
entry:
  %0 = getelementptr inbounds i8, ptr %this, i64 -48
  %call.i = tail call noundef ptr @_ZNK3euf13th_euf_solver10expr2enodeEP4expr(ptr noundef nonnull align 8 dereferenceable(108) %0, ptr noundef %e)
  %tobool.not.i = icmp eq ptr %call.i, null
  br i1 %tobool.not.i, label %_ZN3fpa6solver7visitedEP4expr.exit, label %land.rhs.i

land.rhs.i:                                       ; preds = %entry
  %m_id.i.i = getelementptr inbounds i8, ptr %this, i64 -36
  %1 = load i32, ptr %m_id.i.i, align 4
  %m_th_vars.i.i.i = getelementptr inbounds i8, ptr %call.i, i64 88
  %bf.load.i.i.i.i.i.i = load i32, ptr %m_th_vars.i.i.i, align 8
  %cmp.i.i.i.i.i = icmp ugt i32 %bf.load.i.i.i.i.i.i, -257
  br i1 %cmp.i.i.i.i.i, label %_ZN3fpa6solver7visitedEP4expr.exit, label %do.body.i.i.i.i

do.body.i.i.i.i:                                  ; preds = %land.rhs.i, %if.end5.i.i.i.i
  %l.0.i.i.i.i = phi ptr [ %3, %if.end5.i.i.i.i ], [ %m_th_vars.i.i.i, %land.rhs.i ]
  %bf.load.i.i.i.i.i = load i32, ptr %l.0.i.i.i.i, align 8
  %bf.shl.i.i.i.i.i = shl i32 %bf.load.i.i.i.i.i, 24
  %bf.ashr.i.i.i.i.i = ashr exact i32 %bf.shl.i.i.i.i.i, 24
  %cmp.i.i.i.i = icmp eq i32 %bf.ashr.i.i.i.i.i, %1
  br i1 %cmp.i.i.i.i, label %if.then3.i.i.i.i, label %if.end5.i.i.i.i

if.then3.i.i.i.i:                                 ; preds = %do.body.i.i.i.i
  %2 = icmp ult i32 %bf.load.i.i.i.i.i, -256
  br label %_ZN3fpa6solver7visitedEP4expr.exit

if.end5.i.i.i.i:                                  ; preds = %do.body.i.i.i.i
  %m_next.i.i.i.i.i = getelementptr inbounds i8, ptr %l.0.i.i.i.i, i64 8
  %3 = load ptr, ptr %m_next.i.i.i.i.i, align 8
  %tobool.not.i.i.i.i = icmp eq ptr %3, null
  br i1 %tobool.not.i.i.i.i, label %_ZN3fpa6solver7visitedEP4expr.exit, label %do.body.i.i.i.i, !llvm.loop !8

_ZN3fpa6solver7visitedEP4expr.exit:               ; preds = %if.end5.i.i.i.i, %entry, %land.rhs.i, %if.then3.i.i.i.i
  %4 = phi i1 [ false, %entry ], [ %2, %if.then3.i.i.i.i ], [ false, %land.rhs.i ], [ false, %if.end5.i.i.i.i ]
  ret i1 %4
}